target datalayout = "e-m:e-p270:32:32-p271:32:32-p272:64:64-i64:64-i128:128-f80:128-n8:16:32:64-S128"
target triple = "x86_64-pc-linux-gnu"

%struct.summary_ctx = type { ptr, i32, ptr, ptr, i64, i32, i32, i16, i32, ptr, i32 }
%struct.stat = type { i64, i64, i64, i32, i32, i32, i32, i64, i64, i64, i64, %struct.timespec, %struct.timespec, %struct.timespec, [3 x i64] }
%struct.timespec = type { i64, i64 }
%struct.summary_stub = type { i16, i16, i32, [16 x i8], i32 }
%struct.propset_summary_entry = type { [16 x i8], i32 }
%struct.cl_fmap = type { ptr, ptr, ptr, i64, i64, i64, i64, i8, i8, i8, i64, i64, i64, i64, ptr, ptr, ptr, ptr, ptr, ptr, ptr, i8, [16 x i8], i8, [20 x i8], i8, [32 x i8], ptr, ptr }
%struct.cli_ctx_tag = type { ptr, ptr, ptr, ptr, ptr, ptr, ptr, i64, ptr, i32, i32, ptr, i32, i32, ptr, [16 x i8], ptr, ptr, ptr, ptr, ptr, ptr, %struct.timeval, i8, i8 }
%struct.timeval = type { i64, i64 }

@.str = private unnamed_addr constant [26 x i8] c"in cli_ole2_summary_json\0A\00", align 1
@.str.1 = private unnamed_addr constant [44 x i8] c"ole2_summary_json: invalid file descriptor\0A\00", align 1
@.str.2 = private unnamed_addr constant [43 x i8] c"ole2_summary_json: invalid mode specified\0A\00", align 1
@.str.3 = private unnamed_addr constant [48 x i8] c"ole2_summary_json: cannot stat file descriptor\0A\00", align 1
@.str.4 = private unnamed_addr constant [39 x i8] c"ole2_summary_json: failed to get fmap\0A\00", align 1
@.str.5 = private unnamed_addr constant [36 x i8] c"ole2_summary_json: streamsize: %zu\0A\00", align 1
@.str.6 = private unnamed_addr constant [15 x i8] c"DocSummaryInfo\00", align 1
@.str.7 = private unnamed_addr constant [16 x i8] c"Hwp5SummaryInfo\00", align 1
@.str.8 = private unnamed_addr constant [12 x i8] c"SummaryInfo\00", align 1
@.str.9 = private unnamed_addr constant [47 x i8] c"ole2_summary_json: no memory for json object.\0A\00", align 1
@.str.10 = private unnamed_addr constant [46 x i8] c"ole2_summary_json: byteorder 0x%x is invalid\0A\00", align 1
@.str.11 = private unnamed_addr constant [52 x i8] c"ole2_summary_json: invalid number of property sets\0A\00", align 1
@.str.12 = private unnamed_addr constant [35 x i8] c"ole2_summary_json: byteorder 0x%x\0A\00", align 1
@.str.13 = private unnamed_addr constant [48 x i8] c"ole2_summary_json: %u property set(s) detected\0A\00", align 1
@.str.14 = private unnamed_addr constant [25 x i8] c"HasUserDefinedProperties\00", align 1

; Function Attrs: nounwind uwtable
define internal ptr @fmap_need_off_once(ptr noundef %0, i64 noundef %1, i64 noundef %2) #0 {
  %4 = alloca ptr, align 8
  %5 = alloca i64, align 8
  %6 = alloca i64, align 8
  store ptr %0, ptr %4, align 8
  store i64 %1, ptr %5, align 8
  store i64 %2, ptr %6, align 8
  %7 = load ptr, ptr %4, align 8
  %8 = getelementptr inbounds %struct.cl_fmap, ptr %7, i32 0, i32 15
  %9 = load ptr, ptr %8, align 8
  %10 = load ptr, ptr %4, align 8
  %11 = load i64, ptr %5, align 8
  %12 = load i64, ptr %6, align 8
  %13 = call ptr %9(ptr noundef %10, i64 noundef %11, i64 noundef %12, i32 noundef 0)
  ret ptr %13
}

; Function Attrs: nounwind uwtable
define i32 @cli_ole2_summary_json(ptr noundef %0, i32 noundef %1, i32 noundef %2) #0 {
  %4 = alloca i32, align 4
  %5 = alloca ptr, align 8
  %6 = alloca i32, align 4
  %7 = alloca i32, align 4
  %8 = alloca %struct.summary_ctx, align 8
  %9 = alloca %struct.stat, align 8
  %10 = alloca i64, align 8
  %11 = alloca ptr, align 8
  %12 = alloca %struct.summary_stub, align 4
  %13 = alloca %struct.propset_summary_entry, align 4
  %14 = alloca i32, align 4
  store ptr %0, ptr %5, align 8
  store i32 %1, ptr %6, align 4
  store i32 %2, ptr %7, align 4
  store i64 0, ptr %10, align 8
  store i32 0, ptr %14, align 4
  call void (ptr, ...) @cli_dbgmsg(ptr noundef @.str)
  %15 = load ptr, ptr %5, align 8
  %16 = icmp eq ptr %15, null
  br i1 %16, label %17, label %18

17:                                               ; preds = %3
  store i32 2, ptr %4, align 4
  br label %200

18:                                               ; preds = %3
  %19 = load i32, ptr %6, align 4
  %20 = icmp slt i32 %19, 0
  br i1 %20, label %21, label %22

21:                                               ; preds = %18
  call void (ptr, ...) @cli_dbgmsg(ptr noundef @.str.1)
  store i32 2, ptr %4, align 4
  br label %200

22:                                               ; preds = %18
  %23 = load i32, ptr %7, align 4
  %24 = icmp slt i32 %23, 0
  br i1 %24, label %28, label %25

25:                                               ; preds = %22
  %26 = load i32, ptr %7, align 4
  %27 = icmp sgt i32 %26, 2
  br i1 %27, label %28, label %29

28:                                               ; preds = %25, %22
  call void (ptr, ...) @cli_dbgmsg(ptr noundef @.str.2)
  store i32 2, ptr %4, align 4
  br label %200

29:                                               ; preds = %25
  call void @llvm.memset.p0.i64(ptr align 8 %8, i8 0, i64 72, i1 false)
  %30 = load ptr, ptr %5, align 8
  %31 = getelementptr inbounds %struct.summary_ctx, ptr %8, i32 0, i32 0
  store ptr %30, ptr %31, align 8
  %32 = load i32, ptr %7, align 4
  %33 = getelementptr inbounds %struct.summary_ctx, ptr %8, i32 0, i32 1
  store i32 %32, ptr %33, align 8
  %34 = load i32, ptr %6, align 4
  %35 = call i32 @fstat(i32 noundef %34, ptr noundef %9) #7
  %36 = icmp eq i32 %35, -1
  br i1 %36, label %37, label %38

37:                                               ; preds = %29
  call void (ptr, ...) @cli_dbgmsg(ptr noundef @.str.3)
  store i32 11, ptr %4, align 4
  br label %200

38:                                               ; preds = %29
  %39 = load i32, ptr %6, align 4
  %40 = getelementptr inbounds %struct.stat, ptr %9, i32 0, i32 8
  %41 = load i64, ptr %40, align 8
  %42 = call ptr @fmap(i32 noundef %39, i64 noundef 0, i64 noundef %41, ptr noundef null)
  %43 = getelementptr inbounds %struct.summary_ctx, ptr %8, i32 0, i32 2
  store ptr %42, ptr %43, align 8
  %44 = getelementptr inbounds %struct.summary_ctx, ptr %8, i32 0, i32 2
  %45 = load ptr, ptr %44, align 8
  %46 = icmp ne ptr %45, null
  br i1 %46, label %48, label %47

47:                                               ; preds = %38
  call void (ptr, ...) @cli_dbgmsg(ptr noundef @.str.4)
  store i32 19, ptr %4, align 4
  br label %200

48:                                               ; preds = %38
  %49 = getelementptr inbounds %struct.summary_ctx, ptr %8, i32 0, i32 2
  %50 = load ptr, ptr %49, align 8
  %51 = getelementptr inbounds %struct.cl_fmap, ptr %50, i32 0, i32 13
  %52 = load i64, ptr %51, align 8
  %53 = getelementptr inbounds %struct.summary_ctx, ptr %8, i32 0, i32 4
  store i64 %52, ptr %53, align 8
  %54 = getelementptr inbounds %struct.summary_ctx, ptr %8, i32 0, i32 4
  %55 = load i64, ptr %54, align 8
  call void (ptr, ...) @cli_dbgmsg(ptr noundef @.str.5, i64 noundef %55)
  %56 = load i32, ptr %7, align 4
  switch i32 %56, label %70 [
    i32 1, label %57
    i32 2, label %63
    i32 0, label %69
  ]

57:                                               ; preds = %48
  %58 = load ptr, ptr %5, align 8
  %59 = getelementptr inbounds %struct.cli_ctx_tag, ptr %58, i32 0, i32 21
  %60 = load ptr, ptr %59, align 8
  %61 = call ptr @cli_jsonobj(ptr noundef %60, ptr noundef @.str.6)
  %62 = getelementptr inbounds %struct.summary_ctx, ptr %8, i32 0, i32 3
  store ptr %61, ptr %62, align 8
  br label %76

63:                                               ; preds = %48
  %64 = load ptr, ptr %5, align 8
  %65 = getelementptr inbounds %struct.cli_ctx_tag, ptr %64, i32 0, i32 21
  %66 = load ptr, ptr %65, align 8
  %67 = call ptr @cli_jsonobj(ptr noundef %66, ptr noundef @.str.7)
  %68 = getelementptr inbounds %struct.summary_ctx, ptr %8, i32 0, i32 3
  store ptr %67, ptr %68, align 8
  br label %76

69:                                               ; preds = %48
  br label %70

70:                                               ; preds = %69, %48
  %71 = load ptr, ptr %5, align 8
  %72 = getelementptr inbounds %struct.cli_ctx_tag, ptr %71, i32 0, i32 21
  %73 = load ptr, ptr %72, align 8
  %74 = call ptr @cli_jsonobj(ptr noundef %73, ptr noundef @.str.8)
  %75 = getelementptr inbounds %struct.summary_ctx, ptr %8, i32 0, i32 3
  store ptr %74, ptr %75, align 8
  br label %76

76:                                               ; preds = %70, %63, %57
  %77 = getelementptr inbounds %struct.summary_ctx, ptr %8, i32 0, i32 3
  %78 = load ptr, ptr %77, align 8
  %79 = icmp ne ptr %78, null
  br i1 %79, label %82, label %80

80:                                               ; preds = %76
  call void (ptr, ...) @cli_errmsg(ptr noundef @.str.9)
  %81 = call i32 @cli_ole2_summary_json_cleanup(ptr noundef %8, i32 noundef 20)
  store i32 %81, ptr %4, align 4
  br label %200

82:                                               ; preds = %76
  %83 = getelementptr inbounds %struct.summary_ctx, ptr %8, i32 0, i32 7
  store i16 0, ptr %83, align 8
  %84 = getelementptr inbounds %struct.summary_ctx, ptr %8, i32 0, i32 8
  store i32 0, ptr %84, align 4
  %85 = getelementptr inbounds %struct.summary_ctx, ptr %8, i32 0, i32 4
  %86 = load i64, ptr %85, align 8
  %87 = icmp ult i64 %86, 28
  br i1 %87, label %88, label %93

88:                                               ; preds = %82
  %89 = getelementptr inbounds %struct.summary_ctx, ptr %8, i32 0, i32 5
  %90 = load i32, ptr %89, align 8
  %91 = or i32 %90, 1
  store i32 %91, ptr %89, align 8
  %92 = call i32 @cli_ole2_summary_json_cleanup(ptr noundef %8, i32 noundef 26)
  store i32 %92, ptr %4, align 4
  br label %200

93:                                               ; preds = %82
  %94 = getelementptr inbounds %struct.summary_ctx, ptr %8, i32 0, i32 2
  %95 = load ptr, ptr %94, align 8
  %96 = load i64, ptr %10, align 8
  %97 = call ptr @fmap_need_off_once(ptr noundef %95, i64 noundef %96, i64 noundef 28)
  store ptr %97, ptr %11, align 8
  %98 = load ptr, ptr %11, align 8
  %99 = icmp ne ptr %98, null
  br i1 %99, label %105, label %100

100:                                              ; preds = %93
  %101 = getelementptr inbounds %struct.summary_ctx, ptr %8, i32 0, i32 5
  %102 = load i32, ptr %101, align 8
  %103 = or i32 %102, 4
  store i32 %103, ptr %101, align 8
  %104 = call i32 @cli_ole2_summary_json_cleanup(ptr noundef %8, i32 noundef 12)
  store i32 %104, ptr %4, align 4
  br label %200

105:                                              ; preds = %93
  %106 = load i64, ptr %10, align 8
  %107 = add i64 %106, 28
  store i64 %107, ptr %10, align 8
  %108 = load ptr, ptr %11, align 8
  call void @llvm.memcpy.p0.p0.i64(ptr align 4 %12, ptr align 1 %108, i64 28, i1 false)
  %109 = getelementptr inbounds %struct.summary_stub, ptr %12, i32 0, i32 0
  %110 = load i16, ptr %109, align 4
  %111 = getelementptr inbounds %struct.summary_stub, ptr %12, i32 0, i32 0
  store i16 %110, ptr %111, align 4
  %112 = getelementptr inbounds %struct.summary_stub, ptr %12, i32 0, i32 0
  %113 = load i16, ptr %112, align 4
  %114 = zext i16 %113 to i32
  %115 = icmp ne i32 %114, 65534
  br i1 %115, label %116, label %124

116:                                              ; preds = %105
  %117 = getelementptr inbounds %struct.summary_stub, ptr %12, i32 0, i32 0
  %118 = load i16, ptr %117, align 4
  %119 = zext i16 %118 to i32
  call void (ptr, ...) @cli_dbgmsg(ptr noundef @.str.10, i32 noundef %119)
  %120 = getelementptr inbounds %struct.summary_ctx, ptr %8, i32 0, i32 5
  %121 = load i32, ptr %120, align 8
  %122 = or i32 %121, 8
  store i32 %122, ptr %120, align 8
  %123 = call i32 @cli_ole2_summary_json_cleanup(ptr noundef %8, i32 noundef 26)
  store i32 %123, ptr %4, align 4
  br label %200

124:                                              ; preds = %105
  %125 = getelementptr inbounds %struct.summary_stub, ptr %12, i32 0, i32 1
  %126 = load i16, ptr %125, align 2
  %127 = getelementptr inbounds %struct.summary_stub, ptr %12, i32 0, i32 1
  store i16 %126, ptr %127, align 2
  %128 = getelementptr inbounds %struct.summary_stub, ptr %12, i32 0, i32 2
  %129 = load i32, ptr %128, align 4
  %130 = getelementptr inbounds %struct.summary_stub, ptr %12, i32 0, i32 2
  store i32 %129, ptr %130, align 4
  %131 = getelementptr inbounds %struct.summary_stub, ptr %12, i32 0, i32 4
  %132 = load i32, ptr %131, align 4
  %133 = getelementptr inbounds %struct.summary_stub, ptr %12, i32 0, i32 4
  store i32 %132, ptr %133, align 4
  %134 = getelementptr inbounds %struct.summary_stub, ptr %12, i32 0, i32 4
  %135 = load i32, ptr %134, align 4
  %136 = icmp ne i32 %135, 1
  br i1 %136, label %137, label %146

137:                                              ; preds = %124
  %138 = getelementptr inbounds %struct.summary_stub, ptr %12, i32 0, i32 4
  %139 = load i32, ptr %138, align 4
  %140 = icmp ne i32 %139, 2
  br i1 %140, label %141, label %146

141:                                              ; preds = %137
  call void (ptr, ...) @cli_dbgmsg(ptr noundef @.str.11)
  %142 = getelementptr inbounds %struct.summary_ctx, ptr %8, i32 0, i32 5
  %143 = load i32, ptr %142, align 8
  %144 = or i32 %143, 8
  store i32 %144, ptr %142, align 8
  %145 = call i32 @cli_ole2_summary_json_cleanup(ptr noundef %8, i32 noundef 26)
  store i32 %145, ptr %4, align 4
  br label %200

146:                                              ; preds = %137, %124
  %147 = getelementptr inbounds %struct.summary_stub, ptr %12, i32 0, i32 0
  %148 = load i16, ptr %147, align 4
  %149 = zext i16 %148 to i32
  call void (ptr, ...) @cli_dbgmsg(ptr noundef @.str.12, i32 noundef %149)
  %150 = getelementptr inbounds %struct.summary_stub, ptr %12, i32 0, i32 4
  %151 = load i32, ptr %150, align 4
  call void (ptr, ...) @cli_dbgmsg(ptr noundef @.str.13, i32 noundef %151)
  %152 = getelementptr inbounds %struct.summary_ctx, ptr %8, i32 0, i32 4
  %153 = load i64, ptr %152, align 8
  %154 = load i64, ptr %10, align 8
  %155 = sub i64 %153, %154
  %156 = icmp ult i64 %155, 20
  br i1 %156, label %157, label %162

157:                                              ; preds = %146
  %158 = getelementptr inbounds %struct.summary_ctx, ptr %8, i32 0, i32 5
  %159 = load i32, ptr %158, align 8
  %160 = or i32 %159, 1
  store i32 %160, ptr %158, align 8
  %161 = call i32 @cli_ole2_summary_json_cleanup(ptr noundef %8, i32 noundef 26)
  store i32 %161, ptr %4, align 4
  br label %200

162:                                              ; preds = %146
  %163 = getelementptr inbounds %struct.summary_ctx, ptr %8, i32 0, i32 2
  %164 = load ptr, ptr %163, align 8
  %165 = load i64, ptr %10, align 8
  %166 = call ptr @fmap_need_off_once(ptr noundef %164, i64 noundef %165, i64 noundef 20)
  store ptr %166, ptr %11, align 8
  %167 = load ptr, ptr %11, align 8
  %168 = icmp ne ptr %167, null
  br i1 %168, label %174, label %169

169:                                              ; preds = %162
  %170 = getelementptr inbounds %struct.summary_ctx, ptr %8, i32 0, i32 5
  %171 = load i32, ptr %170, align 8
  %172 = or i32 %171, 4
  store i32 %172, ptr %170, align 8
  %173 = call i32 @cli_ole2_summary_json_cleanup(ptr noundef %8, i32 noundef 12)
  store i32 %173, ptr %4, align 4
  br label %200

174:                                              ; preds = %162
  %175 = load i64, ptr %10, align 8
  %176 = add i64 %175, 20
  store i64 %176, ptr %10, align 8
  %177 = load ptr, ptr %11, align 8
  call void @llvm.memcpy.p0.p0.i64(ptr align 4 %13, ptr align 1 %177, i64 20, i1 false)
  %178 = getelementptr inbounds %struct.propset_summary_entry, ptr %13, i32 0, i32 1
  %179 = load i32, ptr %178, align 4
  %180 = getelementptr inbounds %struct.propset_summary_entry, ptr %13, i32 0, i32 1
  store i32 %179, ptr %180, align 4
  %181 = getelementptr inbounds %struct.propset_summary_entry, ptr %13, i32 0, i32 1
  %182 = load i32, ptr %181, align 4
  %183 = zext i32 %182 to i64
  %184 = call i32 @ole2_summary_propset_json(ptr noundef %8, i64 noundef %183)
  store i32 %184, ptr %14, align 4
  %185 = icmp ne i32 %184, 0
  br i1 %185, label %186, label %189

186:                                              ; preds = %174
  %187 = load i32, ptr %14, align 4
  %188 = call i32 @cli_ole2_summary_json_cleanup(ptr noundef %8, i32 noundef %187)
  store i32 %188, ptr %4, align 4
  br label %200

189:                                              ; preds = %174
  %190 = getelementptr inbounds %struct.summary_stub, ptr %12, i32 0, i32 4
  %191 = load i32, ptr %190, align 4
  %192 = icmp eq i32 %191, 2
  br i1 %192, label %193, label %198

193:                                              ; preds = %189
  %194 = load ptr, ptr %5, align 8
  %195 = getelementptr inbounds %struct.cli_ctx_tag, ptr %194, i32 0, i32 21
  %196 = load ptr, ptr %195, align 8
  %197 = call i32 @cli_jsonbool(ptr noundef %196, ptr noundef @.str.14, i32 noundef 1)
  br label %198

198:                                              ; preds = %193, %189
  %199 = call i32 @cli_ole2_summary_json_cleanup(ptr noundef %8, i32 noundef 0)
  store i32 %199, ptr %4, align 4
  br label %200

200:                                              ; preds = %198, %186, %169, %157, %141, %116, %100, %88, %80, %47, %37, %28, %21, %17
  %201 = load i32, ptr %4, align 4
  ret i32 %201
}