; Function Attrs: nounwind uwtable
define i32 @cli_ole2_summary_json(ptr noundef %0, i32 noundef %1, i32 noundef %2) local_unnamed_addr #0 {
  %4 = alloca %struct.summary_ctx, align 8
  %5 = alloca %struct.stat, align 8
  tail call void (ptr, ...) @cli_dbgmsg(ptr noundef nonnull @.str) #10
  %6 = icmp eq ptr %0, null
  br i1 %6, label %83, label %7

7:                                                ; preds = %3
  %8 = icmp slt i32 %1, 0
  br i1 %8, label %9, label %10

9:                                                ; preds = %7
  tail call void (ptr, ...) @cli_dbgmsg(ptr noundef nonnull @.str.1) #10
  br label %83

10:                                               ; preds = %7
  %or.cond = icmp ugt i32 %2, 2
  br i1 %or.cond, label %11, label %12

11:                                               ; preds = %10
  tail call void (ptr, ...) @cli_dbgmsg(ptr noundef nonnull @.str.2) #10
  br label %83

12:                                               ; preds = %10
  %13 = getelementptr inbounds i8, ptr %4, i64 8
  call void @llvm.memset.p0.i64(ptr noundef nonnull align 8 dereferenceable(72) %13, i8 0, i64 64, i1 false)
  store ptr %0, ptr %4, align 8
  %14 = getelementptr inbounds i8, ptr %4, i64 8
  store i32 %2, ptr %14, align 8
  %15 = call i32 @fstat(i32 noundef %1, ptr noundef nonnull %5) #10
  %16 = icmp eq i32 %15, -1
  br i1 %16, label %17, label %18

17:                                               ; preds = %12
  tail call void (ptr, ...) @cli_dbgmsg(ptr noundef nonnull @.str.3) #10
  br label %83

18:                                               ; preds = %12
  %19 = getelementptr inbounds i8, ptr %5, i64 48
  %20 = load i64, ptr %19, align 8
  %21 = tail call ptr @fmap(i32 noundef %1, i64 noundef 0, i64 noundef %20, ptr noundef null) #10
  %22 = getelementptr inbounds i8, ptr %4, i64 16
  store ptr %21, ptr %22, align 8
  %.not = icmp eq ptr %21, null
  br i1 %.not, label %23, label %24

23:                                               ; preds = %18
  tail call void (ptr, ...) @cli_dbgmsg(ptr noundef nonnull @.str.4) #10
  br label %83

24:                                               ; preds = %18
  %25 = getelementptr inbounds i8, ptr %21, i64 88
  %26 = load i64, ptr %25, align 8
  %27 = getelementptr inbounds i8, ptr %4, i64 32
  store i64 %26, ptr %27, align 8
  tail call void (ptr, ...) @cli_dbgmsg(ptr noundef nonnull @.str.5, i64 noundef %26) #10
  %28 = getelementptr inbounds i8, ptr %0, i64 160
  %29 = load ptr, ptr %28, align 8
  %30 = getelementptr inbounds i8, ptr %4, i64 24
  %switch.selectcmp = icmp eq i32 %2, 2
  %switch.select = select i1 %switch.selectcmp, ptr @.str.7, ptr @.str.8
  %switch.selectcmp50 = icmp eq i32 %2, 1
  %switch.select51 = select i1 %switch.selectcmp50, ptr @.str.6, ptr %switch.select
  %31 = tail call ptr @cli_jsonobj(ptr noundef %29, ptr noundef nonnull %switch.select51) #10
  store ptr %31, ptr %30, align 8
  %.not45 = icmp eq ptr %31, null
  br i1 %.not45, label %32, label %34

32:                                               ; preds = %24
  tail call void (ptr, ...) @cli_errmsg(ptr noundef nonnull @.str.9) #10
  %33 = call fastcc i32 @cli_ole2_summary_json_cleanup(ptr noundef nonnull %4, i32 noundef 20)
  br label %83

34:                                               ; preds = %24
  %35 = getelementptr inbounds i8, ptr %4, i64 48
  store i16 0, ptr %35, align 8
  %36 = getelementptr inbounds i8, ptr %4, i64 52
  store i32 0, ptr %36, align 4
  %37 = icmp ult i64 %26, 28
  br i1 %37, label %38, label %41

38:                                               ; preds = %34
  %39 = getelementptr inbounds i8, ptr %4, i64 40
  store i32 1, ptr %39, align 8
  %40 = call fastcc i32 @cli_ole2_summary_json_cleanup(ptr noundef nonnull %4, i32 noundef 26)
  br label %83

41:                                               ; preds = %34
  %42 = getelementptr inbounds i8, ptr %21, i64 104
  %43 = load ptr, ptr %42, align 8
  %44 = tail call ptr %43(ptr noundef nonnull %21, i64 noundef 0, i64 noundef 28, i32 noundef 0) #10
  %.not46 = icmp eq ptr %44, null
  br i1 %.not46, label %45, label %48

45:                                               ; preds = %41
  %46 = getelementptr inbounds i8, ptr %4, i64 40
  store i32 4, ptr %46, align 8
  %47 = call fastcc i32 @cli_ole2_summary_json_cleanup(ptr noundef nonnull %4, i32 noundef 12)
  br label %83

48:                                               ; preds = %41
  %.sroa.06.0.copyload = load i16, ptr %44, align 1
  %.sroa.1010.0..sroa_idx = getelementptr inbounds i8, ptr %44, i64 24
  %.sroa.1010.0.copyload = load i32, ptr %.sroa.1010.0..sroa_idx, align 1
  %.not47 = icmp eq i16 %.sroa.06.0.copyload, -2
  br i1 %.not47, label %53, label %49

49:                                               ; preds = %48
  %50 = zext i16 %.sroa.06.0.copyload to i32
  tail call void (ptr, ...) @cli_dbgmsg(ptr noundef nonnull @.str.10, i32 noundef %50) #10
  %51 = getelementptr inbounds i8, ptr %4, i64 40
  store i32 8, ptr %51, align 8
  %52 = call fastcc i32 @cli_ole2_summary_json_cleanup(ptr noundef nonnull %4, i32 noundef 26)
  br label %83

53:                                               ; preds = %48
  %54 = add i32 %.sroa.1010.0.copyload, -3
  %or.cond4 = icmp ult i32 %54, -2
  br i1 %or.cond4, label %55, label %58

55:                                               ; preds = %53
  tail call void (ptr, ...) @cli_dbgmsg(ptr noundef nonnull @.str.11) #10
  %56 = getelementptr inbounds i8, ptr %4, i64 40
  store i32 8, ptr %56, align 8
  %57 = call fastcc i32 @cli_ole2_summary_json_cleanup(ptr noundef nonnull %4, i32 noundef 26)
  br label %83

58:                                               ; preds = %53
  tail call void (ptr, ...) @cli_dbgmsg(ptr noundef nonnull @.str.12, i32 noundef 65534) #10
  tail call void (ptr, ...) @cli_dbgmsg(ptr noundef nonnull @.str.13, i32 noundef %.sroa.1010.0.copyload) #10
  %59 = add i64 %26, -28
  %60 = icmp ult i64 %59, 20
  br i1 %60, label %61, label %64

61:                                               ; preds = %58
  %62 = getelementptr inbounds i8, ptr %4, i64 40
  store i32 1, ptr %62, align 8
  %63 = call fastcc i32 @cli_ole2_summary_json_cleanup(ptr noundef nonnull %4, i32 noundef 26)
  br label %83

64:                                               ; preds = %58
  %65 = load ptr, ptr %42, align 8
  %66 = tail call ptr %65(ptr noundef nonnull %21, i64 noundef 28, i64 noundef 20, i32 noundef 0) #10
  %.not48 = icmp eq ptr %66, null
  br i1 %.not48, label %67, label %70

67:                                               ; preds = %64
  %68 = getelementptr inbounds i8, ptr %4, i64 40
  store i32 4, ptr %68, align 8
  %69 = call fastcc i32 @cli_ole2_summary_json_cleanup(ptr noundef nonnull %4, i32 noundef 12)
  br label %83

70:                                               ; preds = %64
  %.sroa.1.0..sroa_idx = getelementptr inbounds i8, ptr %66, i64 16
  %.sroa.1.0.copyload = load i32, ptr %.sroa.1.0..sroa_idx, align 1
  %71 = zext i32 %.sroa.1.0.copyload to i64
  %72 = call fastcc i32 @ole2_summary_propset_json(ptr noundef nonnull %4, i64 noundef %71)
  %.not49 = icmp eq i32 %72, 0
  br i1 %.not49, label %75, label %73

73:                                               ; preds = %70
  %74 = call fastcc i32 @cli_ole2_summary_json_cleanup(ptr noundef nonnull %4, i32 noundef %72)
  br label %83

75:                                               ; preds = %70
  %76 = icmp eq i32 %.sroa.1010.0.copyload, 2
  br i1 %76, label %77, label %81

77:                                               ; preds = %75
  %78 = getelementptr inbounds i8, ptr %0, i64 160
  %79 = load ptr, ptr %78, align 8
  %80 = call i32 @cli_jsonbool(ptr noundef %79, ptr noundef nonnull @.str.14, i32 noundef 1) #10
  br label %81

81:                                               ; preds = %77, %75
  %82 = call fastcc i32 @cli_ole2_summary_json_cleanup(ptr noundef nonnull %4, i32 noundef 0)
  br label %83

83:                                               ; preds = %3, %81, %73, %67, %61, %55, %49, %45, %38, %32, %23, %17, %11, %9
  %.0 = phi i32 [ 2, %9 ], [ 2, %11 ], [ 11, %17 ], [ 26, %38 ], [ 26, %49 ], [ 26, %55 ], [ 26, %61 ], [ %72, %73 ], [ 0, %81 ], [ 12, %67 ], [ 12, %45 ], [ 20, %32 ], [ 19, %23 ], [ 2, %3 ]
  ret i32 %.0
}